target datalayout = "e-m:e-p270:32:32-p271:32:32-p272:64:64-i64:64-i128:128-f80:128-n8:16:32:64-S128"
target triple = "x86_64-pc-linux-gnu"

; Function Attrs: nounwind uwtable
define internal void @remove_style(ptr noundef %0, ptr noundef %1) #0 {
  %3 = alloca ptr, align 8
  %4 = alloca ptr, align 8
  %5 = alloca ptr, align 8
  %6 = alloca ptr, align 8
  store ptr %0, ptr %3, align 8
  store ptr %1, ptr %4, align 8
  %7 = load ptr, ptr %3, align 8
  %8 = load ptr, ptr %3, align 8
  %9 = call i64 @strlen(ptr noundef %8) #5
  %10 = getelementptr inbounds i8, ptr %7, i64 %9
  store ptr %10, ptr %5, align 8
  %11 = load ptr, ptr %4, align 8
  %12 = load ptr, ptr %4, align 8
  %13 = call i64 @strlen(ptr noundef %12) #5
  %14 = getelementptr inbounds i8, ptr %11, i64 %13
  store ptr %14, ptr %6, align 8
  br label %15

15:                                               ; preds = %34, %2
  %16 = load ptr, ptr %6, align 8
  %17 = load ptr, ptr %4, align 8
  %18 = icmp ugt ptr %16, %17
  br i1 %18, label %19, label %35

19:                                               ; preds = %15
  %20 = load ptr, ptr %5, align 8
  %21 = load ptr, ptr %3, align 8
  %22 = icmp eq ptr %20, %21
  br i1 %22, label %33, label %23

23:                                               ; preds = %19
  %24 = load ptr, ptr %6, align 8
  %25 = getelementptr inbounds i8, ptr %24, i32 -1
  store ptr %25, ptr %6, align 8
  %26 = load i8, ptr %25, align 1
  %27 = sext i8 %26 to i32
  %28 = load ptr, ptr %5, align 8
  %29 = getelementptr inbounds i8, ptr %28, i32 -1
  store ptr %29, ptr %5, align 8
  %30 = load i8, ptr %29, align 1
  %31 = sext i8 %30 to i32
  %32 = icmp ne i32 %27, %31
  br i1 %32, label %33, label %34

33:                                               ; preds = %23, %19
  br label %67

34:                                               ; preds = %23
  br label %15, !llvm.loop !45

35:                                               ; preds = %15
  br label %36

36:                                               ; preds = %65, %35
  %37 = load ptr, ptr %5, align 8
  store i8 0, ptr %37, align 1
  br label %38

38:                                               ; preds = %36
  %39 = load ptr, ptr %5, align 8
  %40 = getelementptr inbounds i8, ptr %39, i32 -1
  store ptr %40, ptr %5, align 8
  %41 = load ptr, ptr %3, align 8
  %42 = icmp ugt ptr %39, %41
  br i1 %42, label %43, label %65

43:                                               ; preds = %38
  %44 = load ptr, ptr %5, align 8
  %45 = load i8, ptr %44, align 1
  %46 = sext i8 %45 to i32
  %47 = icmp eq i32 %46, 45
  br i1 %47, label %63, label %48

48:                                               ; preds = %43
  %49 = load ptr, ptr %5, align 8
  %50 = load i8, ptr %49, align 1
  %51 = sext i8 %50 to i32
  %52 = icmp eq i32 %51, 32
  br i1 %52, label %63, label %53

53:                                               ; preds = %48
  %54 = load ptr, ptr %5, align 8
  %55 = load i8, ptr %54, align 1
  %56 = sext i8 %55 to i32
  %57 = icmp eq i32 %56, 95
  br i1 %57, label %63, label %58

58:                                               ; preds = %53
  %59 = load ptr, ptr %5, align 8
  %60 = load i8, ptr %59, align 1
  %61 = sext i8 %60 to i32
  %62 = icmp eq i32 %61, 43
  br label %63

63:                                               ; preds = %58, %53, %48, %43
  %64 = phi i1 [ true, %53 ], [ true, %48 ], [ true, %43 ], [ %62, %58 ]
  br label %65

65:                                               ; preds = %63, %38
  %66 = phi i1 [ false, %38 ], [ %64, %63 ]
  br i1 %66, label %36, label %67, !llvm.loop !46

67:                                               ; preds = %65, %33
  ret void
}