; Function Attrs: nofree nounwind memory(readwrite, inaccessiblemem: none) uwtable
define internal fastcc void @remove_style(ptr noundef %0, ptr noundef readonly %1) unnamed_addr #16 {
  %3 = tail call i64 @strlen(ptr noundef nonnull dereferenceable(1) %0) #21
  %4 = getelementptr inbounds i8, ptr %0, i64 %3
  %5 = tail call i64 @strlen(ptr noundef nonnull dereferenceable(1) %1) #21
  %6 = getelementptr inbounds i8, ptr %1, i64 %5
  br label %7

7:                                                ; preds = %12, %2
  %.019 = phi ptr [ %4, %2 ], [ %15, %12 ]
  %.0 = phi ptr [ %6, %2 ], [ %13, %12 ]
  %8 = icmp ugt ptr %.0, %1
  br i1 %8, label %10, label %.preheader

.preheader:                                       ; preds = %7
  store i8 0, ptr %.019, align 1
  %9 = icmp ugt ptr %.019, %0
  br i1 %9, label %.lr.ph, label %.critedge

10:                                               ; preds = %7
  %11 = icmp eq ptr %.019, %0
  br i1 %11, label %.critedge, label %12

12:                                               ; preds = %10
  %13 = getelementptr inbounds i8, ptr %.0, i64 -1
  %14 = load i8, ptr %13, align 1
  %15 = getelementptr inbounds i8, ptr %.019, i64 -1
  %16 = load i8, ptr %15, align 1
  %.not = icmp eq i8 %14, %16
  br i1 %.not, label %7, label %.critedge, !llvm.loop !46

.backedge:                                        ; preds = %.lr.ph, %.lr.ph, %.lr.ph, %.lr.ph
  store i8 0, ptr %18, align 1
  %17 = icmp ugt ptr %18, %0
  br i1 %17, label %.lr.ph, label %.critedge

.lr.ph:                                           ; preds = %.preheader, %.backedge
  %.pn = phi ptr [ %18, %.backedge ], [ %.019, %.preheader ]
  %18 = getelementptr inbounds i8, ptr %.pn, i64 -1
  %19 = load i8, ptr %18, align 1
  switch i8 %19, label %.critedge [
    i8 45, label %.backedge
    i8 32, label %.backedge
    i8 95, label %.backedge
    i8 43, label %.backedge
  ]

.critedge:                                        ; preds = %10, %12, %.backedge, %.lr.ph, %.preheader
  ret void
}